; ModuleID = '16/377.c'
source_filename = "16/377.c"
target datalayout = "e-m:e-p270:32:32-p271:32:32-p272:64:64-i64:64-f80:128-n8:16:32:64-S128"
target triple = "x86_64-pc-linux-gnu"

@.str = private unnamed_addr constant [3 x i8] c"%d\00", align 1
@__const.main.c = private unnamed_addr constant [5 x i32] [i32 -1, i32 -1, i32 -1, i32 -1, i32 -1], align 16
@.str.1 = private unnamed_addr constant [2 x i8] c"0\00", align 1

; Function Attrs: noinline nounwind uwtable
define dso_local i32 @main() #0 {
  %1 = alloca i32, align 4
  %2 = alloca i32, align 4
  %3 = alloca [6 x i32], align 16
  %4 = alloca [5 x i32], align 16
  %5 = alloca i32, align 4
  store i32 0, i32* %1, align 4
  store i32 0, i32* %2, align 4
  %6 = call i32 (i8*, ...) @__isoc99_scanf(i8* getelementptr inbounds ([3 x i8], [3 x i8]* @.str, i64 0, i64 0), i32* %2)
  %7 = bitcast [6 x i32]* %3 to i8*
  call void @llvm.memset.p0i8.i64(i8* align 16 %7, i8 0, i64 24, i1 false)
  %8 = bitcast [5 x i32]* %4 to i8*
  call void @llvm.memcpy.p0i8.p0i8.i64(i8* align 16 %8, i8* align 16 bitcast ([5 x i32]* @__const.main.c to i8*), i64 20, i1 false)
  %9 = load i32, i32* %2, align 4
  %10 = getelementptr inbounds [6 x i32], [6 x i32]* %3, i64 0, i64 0
  store i32 %9, i32* %10, align 16
  store i32 1, i32* %5, align 4
  br label %11

11:                                               ; preds = %24, %0
  %12 = load i32, i32* %5, align 4
  %13 = icmp slt i32 %12, 5
  br i1 %13, label %14, label %27

14:                                               ; preds = %11
  %15 = load i32, i32* %5, align 4
  %16 = sub nsw i32 %15, 1
  %17 = sext i32 %16 to i64
  %18 = getelementptr inbounds [6 x i32], [6 x i32]* %3, i64 0, i64 %17
  %19 = load i32, i32* %18, align 4
  %20 = sdiv i32 %19, 10
  %21 = load i32, i32* %5, align 4
  %22 = sext i32 %21 to i64
  %23 = getelementptr inbounds [6 x i32], [6 x i32]* %3, i64 0, i64 %22
  store i32 %20, i32* %23, align 4
  br label %24

24:                                               ; preds = %14
  %25 = load i32, i32* %5, align 4
  %26 = add nsw i32 %25, 1
  store i32 %26, i32* %5, align 4
  br label %11

27:                                               ; preds = %11
  store i32 0, i32* %5, align 4
  br label %28

28:                                               ; preds = %65, %27
  %29 = load i32, i32* %5, align 4
  %30 = icmp slt i32 %29, 5
  br i1 %30, label %31, label %68

31:                                               ; preds = %28
  %32 = load i32, i32* %5, align 4
  %33 = sext i32 %32 to i64
  %34 = getelementptr inbounds [6 x i32], [6 x i32]* %3, i64 0, i64 %33
  %35 = load i32, i32* %34, align 4
  %36 = icmp ne i32 %35, 0
  br i1 %36, label %37, label %64

37:                                               ; preds = %31
  %38 = load i32, i32* %5, align 4
  %39 = sext i32 %38 to i64
  %40 = getelementptr inbounds [6 x i32], [6 x i32]* %3, i64 0, i64 %39
  %41 = load i32, i32* %40, align 4
  %42 = load i32, i32* %5, align 4
  %43 = add nsw i32 %42, 1
  %44 = sext i32 %43 to i64
  %45 = getelementptr inbounds [6 x i32], [6 x i32]* %3, i64 0, i64 %44
  %46 = load i32, i32* %45, align 4
  %47 = mul nsw i32 10, %46
  %48 = sub nsw i32 %41, %47
  %49 = load i32, i32* %5, align 4
  %50 = sext i32 %49 to i64
  %51 = getelementptr inbounds [5 x i32], [5 x i32]* %4, i64 0, i64 %50
  store i32 %48, i32* %51, align 4
  %52 = load i32, i32* %5, align 4
  %53 = sext i32 %52 to i64
  %54 = getelementptr inbounds [5 x i32], [5 x i32]* %4, i64 0, i64 %53
  %55 = load i32, i32* %54, align 4
  %56 = icmp sge i32 %55, 0
  br i1 %56, label %57, label %63

57:                                               ; preds = %37
  %58 = load i32, i32* %5, align 4
  %59 = sext i32 %58 to i64
  %60 = getelementptr inbounds [5 x i32], [5 x i32]* %4, i64 0, i64 %59
  %61 = load i32, i32* %60, align 4
  %62 = call i32 (i8*, ...) @printf(i8* getelementptr inbounds ([3 x i8], [3 x i8]* @.str, i64 0, i64 0), i32 %61)
  br label %63

63:                                               ; preds = %57, %37
  br label %64

64:                                               ; preds = %63, %31
  br label %65

65:                                               ; preds = %64
  %66 = load i32, i32* %5, align 4
  %67 = add nsw i32 %66, 1
  store i32 %67, i32* %5, align 4
  br label %28

68:                                               ; preds = %28
  %69 = load i32, i32* %2, align 4
  %70 = icmp eq i32 %69, 0
  br i1 %70, label %71, label %73

71:                                               ; preds = %68
  %72 = call i32 (i8*, ...) @printf(i8* getelementptr inbounds ([2 x i8], [2 x i8]* @.str.1, i64 0, i64 0))
  br label %73

73:                                               ; preds = %71, %68
  %74 = load i32, i32* %1, align 4
  ret i32 %74
}

declare dso_local i32 @__isoc99_scanf(i8*, ...) #1

; Function Attrs: argmemonly nounwind willreturn
declare void @llvm.memset.p0i8.i64(i8* nocapture writeonly, i8, i64, i1 immarg) #2

; Function Attrs: argmemonly nounwind willreturn
declare void @llvm.memcpy.p0i8.p0i8.i64(i8* noalias nocapture writeonly, i8* noalias nocapture readonly, i64, i1 immarg) #2

declare dso_local i32 @printf(i8*, ...) #1


!llvm.module.flags = !{!0}
!llvm.ident = !{!1}

!0 = !{i32 1, !"wchar_size", i32 4}
!1 = !{!"clang version 10.0.0-4ubuntu1 "}
